(dp0
I128
(dp1
F0.5
cnumpy.core.multiarray
_reconstruct
p2
(cnumpy
ndarray
p3
(I0
tp4
S'b'
p5
tp6
Rp7
(I1
(I1
tp8
cnumpy
dtype
p9
(S'f8'
p10
I0
I1
tp11
Rp12
(I3
S'<'
p13
NNNI-1
I-1
I0
tp14
bI00
S'\xc0\xec\x9e<,\x02a\xc0'
p15
tp16
bsF2.0
g2
(g3
(I0
tp17
g5
tp18
Rp19
(I1
(I1
tp20
g12
I00
S'p\xebn\x9ej\xe8p\xc0'
p21
tp22
bsF-2.0
g2
(g3
(I0
tp23
g5
tp24
Rp25
(I1
(I1
tp26
g12
I00
S'p\xebn\x9ej\xe8p\xc0'
p27
tp28
bssI64
(dp29
F0.5
g2
(g3
(I0
tp30
g5
tp31
Rp32
(I1
(I1
tp33
g12
I00
S'\x8c\xd9\x92U\x11\x00Q\xc0'
p34
tp35
bsF2.0
g2
(g3
(I0
tp36
g5
tp37
Rp38
(I1
(I1
tp39
g12
I00
S'4\x9d\x9d\x0c\x8e\xcc`\xc0'
p40
tp41
bsF-2.0
g2
(g3
(I0
tp42
g5
tp43
Rp44
(I1
(I1
tp45
g12
I00
S'4\x9d\x9d\x0c\x8e\xcc`\xc0'
p46
tp47
bssI4
(dp48
F0.5
g2
(g3
(I0
tp49
g5
tp50
Rp51
(I1
(I1
tp52
g12
I00
S'p[\x00\xbf\xeb\xc0\x10\xc0'
p53
tp54
bsF2.0
g2
(g3
(I0
tp55
g5
tp56
Rp57
(I1
(I1
tp58
g12
I00
S'\xe06\xae\xda\x90j\x1b\xc0'
p59
tp60
bsF-2.0
g2
(g3
(I0
tp61
g5
tp62
Rp63
(I1
(I1
tp64
g12
I00
S'\xe06\xae\xda\x90j\x1b\xc0'
p65
tp66
bssI32
(dp67
F0.5
g2
(g3
(I0
tp68
g5
tp69
Rp70
(I1
(I1
tp71
g12
I00
S'%\xb3z\x87\xdb\xfb@\xc0'
p72
tp73
bsF2.0
g2
(g3
(I0
tp74
g5
tp75
Rp76
(I1
(I1
tp77
g12
I00
S'F\xb6\xf3\xfd\xd4\x94P\xc0'
p78
tp79
bsF-2.0
g2
(g3
(I0
tp80
g5
tp81
Rp82
(I1
(I1
tp83
g12
I00
S'F\xb6\xf3\xfd\xd4\x94P\xc0'
p84
tp85
bssI8
(dp86
F0.5
g2
(g3
(I0
tp87
g5
tp88
Rp89
(I1
(I1
tp90
g12
I00
S'\xedUu\xa0\x98\xe2 \xc0'
p91
tp92
bsF2.0
g2
(g3
(I0
tp93
g5
tp94
Rp95
(I1
(I1
tp96
g12
I00
S'd@\xf6z\xf7\x8f.\xc0'
p97
tp98
bsF-2.0
g2
(g3
(I0
tp99
g5
tp100
Rp101
(I1
(I1
tp102
g12
I00
S'd@\xf6z\xf7\x8f.\xc0'
p103
tp104
bssI16
(dp105
F0.5
g2
(g3
(I0
tp106
g5
tp107
Rp108
(I1
(I1
tp109
g12
I00
S'\x85\xea\xe6\xe2o\xf30\xc0'
p110
tp111
bsF2.0
g2
(g3
(I0
tp112
g5
tp113
Rp114
(I1
(I1
tp115
g12
I00
S'\x98l<\xd8b%@\xc0'
p116
tp117
bsF-2.0
g2
(g3
(I0
tp118
g5
tp119
Rp120
(I1
(I1
tp121
g12
I00
S'\t\xe0f\xf1b%@\xc0'
p122
tp123
bss.